; Function Attrs: mustprogress nounwind uwtable
define hidden void @_ZN2cv6detail8tracking15online_boosting19ClassifierThresholdD0Ev(ptr noundef nonnull align 8 dereferenceable(32) initializes((0, 8)) %0) unnamed_addr #8 align 2 {
  store ptr getelementptr inbounds nuw inrange(-16, 16) (i8, ptr @_ZTVN2cv6detail8tracking15online_boosting19ClassifierThresholdE, i64 16), ptr %0, align 8, !tbaa !3
  %2 = getelementptr inbounds nuw i8, ptr %0, i64 8
  %3 = load ptr, ptr %2, align 8, !tbaa !123
  %.not.i = icmp eq ptr %3, null
  br i1 %.not.i, label %8, label %4

4:                                                ; preds = %1
  %5 = load ptr, ptr %3, align 8, !tbaa !3
  %6 = getelementptr inbounds nuw i8, ptr %5, i64 8
  %7 = load ptr, ptr %6, align 8
  tail call void %7(ptr noundef nonnull align 8 dereferenceable(32) %3) #24
  br label %8

8:                                                ; preds = %4, %1
  %9 = getelementptr inbounds nuw i8, ptr %0, i64 16
  %10 = load ptr, ptr %9, align 8, !tbaa !131
  %.not2.i = icmp eq ptr %10, null
  br i1 %.not2.i, label %_ZN2cv6detail8tracking15online_boosting19ClassifierThresholdD2Ev.exit, label %11

11:                                               ; preds = %8
  %12 = load ptr, ptr %10, align 8, !tbaa !3
  %13 = getelementptr inbounds nuw i8, ptr %12, i64 8
  %14 = load ptr, ptr %13, align 8
  tail call void %14(ptr noundef nonnull align 8 dereferenceable(32) %10) #24
  br label %_ZN2cv6detail8tracking15online_boosting19ClassifierThresholdD2Ev.exit

_ZN2cv6detail8tracking15online_boosting19ClassifierThresholdD2Ev.exit: ; preds = %8, %11
  tail call void @_ZdlPv(ptr noundef nonnull %0) #26
  ret void
}